target datalayout = "e-m:e-p270:32:32-p271:32:32-p272:64:64-i64:64-i128:128-f80:128-n8:16:32:64-S128"
target triple = "x86_64-pc-linux-gnu"

%struct.hb_object_header_t = type { %struct.hb_reference_count_t, %struct.hb_atomic_int_t, %struct.hb_atomic_ptr_t }
%struct.hb_reference_count_t = type { %struct.hb_atomic_int_t }
%struct.hb_atomic_int_t = type { i32 }
%struct.hb_atomic_ptr_t = type { ptr }
%struct.hb_segment_properties_t = type { i32, i32, ptr, ptr, ptr }
%struct.hb_buffer_t = type <{ %struct.hb_object_header_t, ptr, i32, i32, i32, i32, i32, i32, %struct.hb_segment_properties_t, i8, i8, i8, i8, i32, i32, i32, i32, [4 x i8], ptr, ptr, ptr, [2 x [5 x i32]], [2 x i32], i8, i8, [2 x i8], i32, i32, i32, ptr, ptr, ptr, i32, [4 x i8] }>
%struct.hb_glyph_info_t = type { i32, i32, i32, %union._hb_var_int_t, %union._hb_var_int_t }
%union._hb_var_int_t = type { i32 }

; Function Attrs: mustprogress uwtable
define linkonce_odr hidden void @_ZN11hb_buffer_t14merge_clustersEjj(ptr noundef nonnull align 8 dereferenceable(220) %0, i32 noundef %1, i32 noundef %2) #1 comdat align 2 {
  %4 = alloca ptr, align 8
  %5 = alloca i32, align 4
  %6 = alloca i32, align 4
  store ptr %0, ptr %4, align 8
  store i32 %1, ptr %5, align 4
  store i32 %2, ptr %6, align 4
  %7 = load ptr, ptr %4, align 8
  %8 = load i32, ptr %6, align 4
  %9 = load i32, ptr %5, align 4
  %10 = sub i32 %8, %9
  %11 = icmp ult i32 %10, 2
  br i1 %11, label %12, label %13

12:                                               ; preds = %3
  br label %16

13:                                               ; preds = %3
  %14 = load i32, ptr %5, align 4
  %15 = load i32, ptr %6, align 4
  call void @_ZN11hb_buffer_t19merge_clusters_implEjj(ptr noundef nonnull align 8 dereferenceable(220) %7, i32 noundef %14, i32 noundef %15)
  br label %16

16:                                               ; preds = %13, %12
  ret void
}

; Function Attrs: mustprogress uwtable
define hidden void @_ZN11hb_buffer_t4sortEjjPFiPK15hb_glyph_info_tS2_E(ptr noundef nonnull align 8 dereferenceable(220) %0, i32 noundef %1, i32 noundef %2, ptr noundef %3) #1 align 2 {
  %5 = alloca ptr, align 8
  %6 = alloca i32, align 4
  %7 = alloca i32, align 4
  %8 = alloca ptr, align 8
  %9 = alloca i32, align 4
  %10 = alloca i32, align 4
  %11 = alloca %struct.hb_glyph_info_t, align 4
  store ptr %0, ptr %5, align 8
  store i32 %1, ptr %6, align 4
  store i32 %2, ptr %7, align 4
  store ptr %3, ptr %8, align 8
  %12 = load ptr, ptr %5, align 8
  %13 = load i32, ptr %6, align 4
  %14 = add i32 %13, 1
  store i32 %14, ptr %9, align 4
  br label %15

15:                                               ; preds = %80, %4
  %16 = load i32, ptr %9, align 4
  %17 = load i32, ptr %7, align 4
  %18 = icmp ult i32 %16, %17
  br i1 %18, label %19, label %83

19:                                               ; preds = %15
  %20 = load i32, ptr %9, align 4
  store i32 %20, ptr %10, align 4
  br label %21

21:                                               ; preds = %42, %19
  %22 = load i32, ptr %10, align 4
  %23 = load i32, ptr %6, align 4
  %24 = icmp ugt i32 %22, %23
  br i1 %24, label %25, label %40

25:                                               ; preds = %21
  %26 = load ptr, ptr %8, align 8
  %27 = getelementptr inbounds %struct.hb_buffer_t, ptr %12, i32 0, i32 18
  %28 = load ptr, ptr %27, align 8
  %29 = load i32, ptr %10, align 4
  %30 = sub i32 %29, 1
  %31 = zext i32 %30 to i64
  %32 = getelementptr inbounds %struct.hb_glyph_info_t, ptr %28, i64 %31
  %33 = getelementptr inbounds %struct.hb_buffer_t, ptr %12, i32 0, i32 18
  %34 = load ptr, ptr %33, align 8
  %35 = load i32, ptr %9, align 4
  %36 = zext i32 %35 to i64
  %37 = getelementptr inbounds %struct.hb_glyph_info_t, ptr %34, i64 %36
  %38 = call noundef i32 %26(ptr noundef %32, ptr noundef %37)
  %39 = icmp sgt i32 %38, 0
  br label %40

40:                                               ; preds = %25, %21
  %41 = phi i1 [ false, %21 ], [ %39, %25 ]
  br i1 %41, label %42, label %45

42:                                               ; preds = %40
  %43 = load i32, ptr %10, align 4
  %44 = add i32 %43, -1
  store i32 %44, ptr %10, align 4
  br label %21, !llvm.loop !47

45:                                               ; preds = %40
  %46 = load i32, ptr %9, align 4
  %47 = load i32, ptr %10, align 4
  %48 = icmp eq i32 %46, %47
  br i1 %48, label %49, label %50

49:                                               ; preds = %45
  br label %80

50:                                               ; preds = %45
  %51 = load i32, ptr %10, align 4
  %52 = load i32, ptr %9, align 4
  %53 = add i32 %52, 1
  call void @_ZN11hb_buffer_t14merge_clustersEjj(ptr noundef nonnull align 8 dereferenceable(220) %12, i32 noundef %51, i32 noundef %53)
  %54 = getelementptr inbounds %struct.hb_buffer_t, ptr %12, i32 0, i32 18
  %55 = load ptr, ptr %54, align 8
  %56 = load i32, ptr %9, align 4
  %57 = zext i32 %56 to i64
  %58 = getelementptr inbounds %struct.hb_glyph_info_t, ptr %55, i64 %57
  call void @llvm.memcpy.p0.p0.i64(ptr align 4 %11, ptr align 4 %58, i64 20, i1 false)
  %59 = getelementptr inbounds %struct.hb_buffer_t, ptr %12, i32 0, i32 18
  %60 = load ptr, ptr %59, align 8
  %61 = load i32, ptr %10, align 4
  %62 = add i32 %61, 1
  %63 = zext i32 %62 to i64
  %64 = getelementptr inbounds %struct.hb_glyph_info_t, ptr %60, i64 %63
  %65 = getelementptr inbounds %struct.hb_buffer_t, ptr %12, i32 0, i32 18
  %66 = load ptr, ptr %65, align 8
  %67 = load i32, ptr %10, align 4
  %68 = zext i32 %67 to i64
  %69 = getelementptr inbounds %struct.hb_glyph_info_t, ptr %66, i64 %68
  %70 = load i32, ptr %9, align 4
  %71 = load i32, ptr %10, align 4
  %72 = sub i32 %70, %71
  %73 = zext i32 %72 to i64
  %74 = mul i64 %73, 20
  call void @llvm.memmove.p0.p0.i64(ptr align 4 %64, ptr align 4 %69, i64 %74, i1 false)
  %75 = getelementptr inbounds %struct.hb_buffer_t, ptr %12, i32 0, i32 18
  %76 = load ptr, ptr %75, align 8
  %77 = load i32, ptr %10, align 4
  %78 = zext i32 %77 to i64
  %79 = getelementptr inbounds %struct.hb_glyph_info_t, ptr %76, i64 %78
  call void @llvm.memcpy.p0.p0.i64(ptr align 4 %79, ptr align 4 %11, i64 20, i1 false)
  br label %80

80:                                               ; preds = %50, %49
  %81 = load i32, ptr %9, align 4
  %82 = add i32 %81, 1
  store i32 %82, ptr %9, align 4
  br label %15, !llvm.loop !48

83:                                               ; preds = %15
  ret void
}