; Function Attrs: mustprogress uwtable
define hidden void @_ZN11hb_buffer_t4sortEjjPFiPK15hb_glyph_info_tS2_E(ptr noundef nonnull align 8 dereferenceable(220) %0, i32 noundef %1, i32 noundef %2, ptr nocapture noundef readonly %3) local_unnamed_addr #5 align 2 {
  %5 = alloca %struct.hb_glyph_info_t, align 4
  %.02122 = add i32 %1, 1
  %6 = icmp ult i32 %.02122, %2
  br i1 %6, label %.preheader.lr.ph, label %._crit_edge

.preheader.lr.ph:                                 ; preds = %4
  %7 = getelementptr inbounds i8, ptr %0, i64 104
  %8 = zext i32 %.02122 to i64
  %9 = zext i32 %1 to i64
  br label %.preheader

.preheader:                                       ; preds = %.preheader.lr.ph, %39
  %indvars.iv = phi i64 [ %8, %.preheader.lr.ph ], [ %indvars.iv.next, %39 ]
  %.021.in23 = phi i32 [ %1, %.preheader.lr.ph ], [ %10, %39 ]
  %10 = trunc nuw i64 %indvars.iv to i32
  %umin = tail call i32 @llvm.umin.i32(i32 %1, i32 %10)
  br label %11

11:                                               ; preds = %.preheader, %13
  %indvars.iv25 = phi i64 [ %indvars.iv, %.preheader ], [ %15, %13 ]
  %12 = icmp ugt i64 %indvars.iv25, %9
  br i1 %12, label %13, label %.critedge

13:                                               ; preds = %11
  %14 = load ptr, ptr %7, align 8
  %15 = add nsw i64 %indvars.iv25, -1
  %16 = getelementptr inbounds %struct.hb_glyph_info_t, ptr %14, i64 %15
  %17 = getelementptr inbounds %struct.hb_glyph_info_t, ptr %14, i64 %indvars.iv
  %18 = tail call noundef i32 %3(ptr noundef %16, ptr noundef %17)
  %19 = icmp sgt i32 %18, 0
  br i1 %19, label %11, label %.critedge.split.loop.exit29, !llvm.loop !77

.critedge.split.loop.exit29:                      ; preds = %13
  %20 = trunc nuw i64 %indvars.iv25 to i32
  br label %.critedge

.critedge:                                        ; preds = %11, %.critedge.split.loop.exit29
  %.0.lcssa = phi i32 [ %20, %.critedge.split.loop.exit29 ], [ %umin, %11 ]
  %21 = zext i32 %.0.lcssa to i64
  %22 = icmp eq i64 %indvars.iv, %21
  br i1 %22, label %39, label %23

23:                                               ; preds = %.critedge
  %24 = add i32 %.021.in23, 2
  %25 = sub i32 %24, %.0.lcssa
  %26 = icmp ult i32 %25, 2
  br i1 %26, label %_ZN11hb_buffer_t14merge_clustersEjj.exit, label %27

27:                                               ; preds = %23
  tail call void @_ZN11hb_buffer_t19merge_clusters_implEjj(ptr noundef nonnull align 8 dereferenceable(220) %0, i32 noundef %.0.lcssa, i32 noundef %24)
  br label %_ZN11hb_buffer_t14merge_clustersEjj.exit

_ZN11hb_buffer_t14merge_clustersEjj.exit:         ; preds = %23, %27
  %28 = load ptr, ptr %7, align 8
  %29 = getelementptr inbounds %struct.hb_glyph_info_t, ptr %28, i64 %indvars.iv
  call void @llvm.memcpy.p0.p0.i64(ptr noundef nonnull align 4 dereferenceable(20) %5, ptr noundef nonnull align 4 dereferenceable(20) %29, i64 20, i1 false)
  %30 = add i32 %.0.lcssa, 1
  %31 = zext i32 %30 to i64
  %32 = getelementptr inbounds %struct.hb_glyph_info_t, ptr %28, i64 %31
  %33 = getelementptr inbounds %struct.hb_glyph_info_t, ptr %28, i64 %21
  %34 = sub i32 %10, %.0.lcssa
  %35 = zext i32 %34 to i64
  %36 = mul nuw nsw i64 %35, 20
  tail call void @llvm.memmove.p0.p0.i64(ptr align 4 %32, ptr align 4 %33, i64 %36, i1 false)
  %37 = load ptr, ptr %7, align 8
  %38 = getelementptr inbounds %struct.hb_glyph_info_t, ptr %37, i64 %21
  call void @llvm.memcpy.p0.p0.i64(ptr noundef nonnull align 4 dereferenceable(20) %38, ptr noundef nonnull align 4 dereferenceable(20) %5, i64 20, i1 false)
  br label %39

39:                                               ; preds = %.critedge, %_ZN11hb_buffer_t14merge_clustersEjj.exit
  %indvars.iv.next = add nuw nsw i64 %indvars.iv, 1
  %lftr.wideiv = trunc i64 %indvars.iv.next to i32
  %exitcond.not = icmp eq i32 %lftr.wideiv, %2
  br i1 %exitcond.not, label %._crit_edge, label %.preheader, !llvm.loop !78

._crit_edge:                                      ; preds = %39, %4
  ret void
}